; Function Attrs: nounwind uwtable
define void @Cba_BlastFullAdderCtrl(ptr noundef %0, i32 noundef %1, i32 noundef %2, i32 noundef %3, i32 noundef %4, ptr noundef writeonly captures(none) initializes((0, 4)) %5, ptr noundef writeonly captures(none) initializes((0, 4)) %6, i32 noundef %7) local_unnamed_addr #0 {
  %9 = tail call i32 @Gia_ManHashAnd(ptr noundef %0, i32 noundef %1, i32 noundef %2) #20
  %10 = icmp sgt i32 %7, 0
  %11 = zext i1 %10 to i32
  %12 = xor i32 %9, %11
  %13 = tail call i32 @Gia_ManHashAnd(ptr noundef %0, i32 noundef %12, i32 noundef %3) #20
  %14 = xor i32 %12, 1
  %15 = xor i32 %3, 1
  %16 = tail call i32 @Gia_ManHashAnd(ptr noundef %0, i32 noundef %14, i32 noundef %15) #20
  %17 = tail call i32 @Gia_ManHashOr(ptr noundef %0, i32 noundef %13, i32 noundef %16) #20
  %18 = xor i32 %17, 1
  %19 = tail call i32 @Gia_ManHashAnd(ptr noundef %0, i32 noundef %4, i32 noundef %18) #20
  %20 = xor i32 %4, 1
  %21 = tail call i32 @Gia_ManHashAnd(ptr noundef %0, i32 noundef %20, i32 noundef %17) #20
  %22 = tail call i32 @Gia_ManHashOr(ptr noundef %0, i32 noundef %19, i32 noundef %21) #20
  %23 = xor i32 %22, 1
  store i32 %23, ptr %6, align 4
  %24 = tail call i32 @Gia_ManHashOr(ptr noundef %0, i32 noundef %13, i32 noundef %19) #20
  store i32 %24, ptr %5, align 4
  ret void
}